target datalayout = "e-m:e-p270:32:32-p271:32:32-p272:64:64-i64:64-i128:128-f80:128-n8:16:32:64-S128"
target triple = "x86_64-pc-linux-gnu"

%struct.AVFilterContext = type { ptr, ptr, ptr, ptr, ptr, i32, ptr, ptr, i32, ptr, ptr, i32, i32, ptr, ptr, ptr, ptr, i32, ptr, i32, i32 }
%struct.CompensationDelayContext = type { ptr, i32, i32, i32, double, double, i32, i32, i32, i32, ptr }
%struct.AVFilterLink = type { ptr, ptr, ptr, ptr, i32, i32, i32, i32, %struct.AVRational, i32, i32, i32, %struct.AVChannelLayout, %struct.AVRational, ptr, i32, %struct.AVFilterFormatsConfig, %struct.AVFilterFormatsConfig }
%struct.AVChannelLayout = type { i32, i32, %union.anon.1, ptr }
%union.anon.1 = type { i64 }
%struct.AVRational = type { i32, i32 }
%struct.AVFilterFormatsConfig = type { ptr, ptr, ptr, ptr, ptr }
%struct.AVFrame = type { [8 x ptr], [8 x i32], ptr, i32, i32, i32, i32, i32, %struct.AVRational, i64, i64, %struct.AVRational, i32, ptr, i32, i32, [8 x ptr], ptr, i32, ptr, i32, i32, i32, i32, i32, i32, i32, i64, ptr, i32, ptr, ptr, i64, i64, i64, i64, ptr, %struct.AVChannelLayout, i64 }

; Function Attrs: nounwind uwtable
define internal i32 @filter_frame(ptr noundef %0, ptr noundef %1) #1 {
  %3 = alloca i32, align 4
  %4 = alloca ptr, align 8
  %5 = alloca ptr, align 8
  %6 = alloca ptr, align 8
  %7 = alloca ptr, align 8
  %8 = alloca ptr, align 8
  %9 = alloca i32, align 4
  %10 = alloca i32, align 4
  %11 = alloca i32, align 4
  %12 = alloca double, align 8
  %13 = alloca double, align 8
  %14 = alloca i32, align 4
  %15 = alloca i32, align 4
  %16 = alloca ptr, align 8
  %17 = alloca i32, align 4
  %18 = alloca i32, align 4
  %19 = alloca i32, align 4
  %20 = alloca ptr, align 8
  %21 = alloca ptr, align 8
  %22 = alloca ptr, align 8
  %23 = alloca double, align 8
  store ptr %0, ptr %4, align 8, !tbaa !27
  store ptr %1, ptr %5, align 8, !tbaa !45
  call void @llvm.lifetime.start.p0(i64 8, ptr %6) #5
  %24 = load ptr, ptr %4, align 8, !tbaa !27
  %25 = getelementptr inbounds nuw %struct.AVFilterLink, ptr %24, i32 0, i32 2
  %26 = load ptr, ptr %25, align 8, !tbaa !46
  store ptr %26, ptr %6, align 8, !tbaa !4
  call void @llvm.lifetime.start.p0(i64 8, ptr %7) #5
  %27 = load ptr, ptr %6, align 8, !tbaa !4
  %28 = getelementptr inbounds nuw %struct.AVFilterContext, ptr %27, i32 0, i32 7
  %29 = load ptr, ptr %28, align 8, !tbaa !26
  %30 = getelementptr inbounds ptr, ptr %29, i64 0
  %31 = load ptr, ptr %30, align 8, !tbaa !27
  store ptr %31, ptr %7, align 8, !tbaa !27
  call void @llvm.lifetime.start.p0(i64 8, ptr %8) #5
  %32 = load ptr, ptr %6, align 8, !tbaa !4
  %33 = getelementptr inbounds nuw %struct.AVFilterContext, ptr %32, i32 0, i32 9
  %34 = load ptr, ptr %33, align 8, !tbaa !9
  store ptr %34, ptr %8, align 8, !tbaa !22
  call void @llvm.lifetime.start.p0(i64 4, ptr %9) #5
  %35 = load ptr, ptr %8, align 8, !tbaa !22
  %36 = getelementptr inbounds nuw %struct.CompensationDelayContext, ptr %35, i32 0, i32 9
  %37 = load i32, ptr %36, align 4, !tbaa !47
  %38 = sub i32 %37, 1
  store i32 %38, ptr %9, align 4, !tbaa !25
  call void @llvm.lifetime.start.p0(i64 4, ptr %10) #5
  %39 = load ptr, ptr %8, align 8, !tbaa !22
  %40 = getelementptr inbounds nuw %struct.CompensationDelayContext, ptr %39, i32 0, i32 9
  %41 = load i32, ptr %40, align 4, !tbaa !47
  store i32 %41, ptr %10, align 4, !tbaa !25
  call void @llvm.lifetime.start.p0(i64 4, ptr %11) #5
  %42 = load ptr, ptr %8, align 8, !tbaa !22
  %43 = getelementptr inbounds nuw %struct.CompensationDelayContext, ptr %42, i32 0, i32 7
  %44 = load i32, ptr %43, align 4, !tbaa !44
  store i32 %44, ptr %11, align 4, !tbaa !25
  call void @llvm.lifetime.start.p0(i64 8, ptr %12) #5
  %45 = load ptr, ptr %8, align 8, !tbaa !22
  %46 = getelementptr inbounds nuw %struct.CompensationDelayContext, ptr %45, i32 0, i32 4
  %47 = load double, ptr %46, align 8, !tbaa !48
  store double %47, ptr %12, align 8, !tbaa !49
  call void @llvm.lifetime.start.p0(i64 8, ptr %13) #5
  %48 = load ptr, ptr %8, align 8, !tbaa !22
  %49 = getelementptr inbounds nuw %struct.CompensationDelayContext, ptr %48, i32 0, i32 5
  %50 = load double, ptr %49, align 8, !tbaa !50
  store double %50, ptr %13, align 8, !tbaa !49
  call void @llvm.lifetime.start.p0(i64 4, ptr %14) #5
  call void @llvm.lifetime.start.p0(i64 4, ptr %15) #5
  store i32 0, ptr %15, align 4, !tbaa !25
  call void @llvm.lifetime.start.p0(i64 8, ptr %16) #5
  call void @llvm.lifetime.start.p0(i64 4, ptr %17) #5
  call void @llvm.lifetime.start.p0(i64 4, ptr %18) #5
  %51 = load ptr, ptr %7, align 8, !tbaa !27
  %52 = load ptr, ptr %5, align 8, !tbaa !45
  %53 = getelementptr inbounds nuw %struct.AVFrame, ptr %52, i32 0, i32 5
  %54 = load i32, ptr %53, align 8, !tbaa !51
  %55 = call ptr @ff_get_audio_buffer(ptr noundef %51, i32 noundef %54)
  store ptr %55, ptr %16, align 8, !tbaa !45
  %56 = load ptr, ptr %16, align 8, !tbaa !45
  %57 = icmp ne ptr %56, null
  br i1 %57, label %59, label %58

58:                                               ; preds = %2
  call void @av_frame_free(ptr noundef %5)
  store i32 -12, ptr %3, align 4
  store i32 1, ptr %19, align 4
  br label %166

59:                                               ; preds = %2
  %60 = load ptr, ptr %16, align 8, !tbaa !45
  %61 = load ptr, ptr %5, align 8, !tbaa !45
  %62 = call i32 @av_frame_copy_props(ptr noundef %60, ptr noundef %61)
  store i32 0, ptr %18, align 4, !tbaa !25
  br label %63

63:                                               ; preds = %147, %59
  %64 = load i32, ptr %18, align 4, !tbaa !25
  %65 = load ptr, ptr %4, align 8, !tbaa !27
  %66 = getelementptr inbounds nuw %struct.AVFilterLink, ptr %65, i32 0, i32 12
  %67 = getelementptr inbounds nuw %struct.AVChannelLayout, ptr %66, i32 0, i32 1
  %68 = load i32, ptr %67, align 4, !tbaa !57
  %69 = icmp slt i32 %64, %68
  br i1 %69, label %70, label %150

70:                                               ; preds = %63
  call void @llvm.lifetime.start.p0(i64 8, ptr %20) #5
  %71 = load ptr, ptr %5, align 8, !tbaa !45
  %72 = getelementptr inbounds nuw %struct.AVFrame, ptr %71, i32 0, i32 2
  %73 = load ptr, ptr %72, align 8, !tbaa !58
  %74 = load i32, ptr %18, align 4, !tbaa !25
  %75 = sext i32 %74 to i64
  %76 = getelementptr inbounds ptr, ptr %73, i64 %75
  %77 = load ptr, ptr %76, align 8, !tbaa !24
  store ptr %77, ptr %20, align 8, !tbaa !59
  call void @llvm.lifetime.start.p0(i64 8, ptr %21) #5
  %78 = load ptr, ptr %16, align 8, !tbaa !45
  %79 = getelementptr inbounds nuw %struct.AVFrame, ptr %78, i32 0, i32 2
  %80 = load ptr, ptr %79, align 8, !tbaa !58
  %81 = load i32, ptr %18, align 4, !tbaa !25
  %82 = sext i32 %81 to i64
  %83 = getelementptr inbounds ptr, ptr %80, i64 %82
  %84 = load ptr, ptr %83, align 8, !tbaa !24
  store ptr %84, ptr %21, align 8, !tbaa !59
  call void @llvm.lifetime.start.p0(i64 8, ptr %22) #5
  %85 = load ptr, ptr %8, align 8, !tbaa !22
  %86 = getelementptr inbounds nuw %struct.CompensationDelayContext, ptr %85, i32 0, i32 10
  %87 = load ptr, ptr %86, align 8, !tbaa !60
  %88 = getelementptr inbounds nuw %struct.AVFrame, ptr %87, i32 0, i32 2
  %89 = load ptr, ptr %88, align 8, !tbaa !58
  %90 = load i32, ptr %18, align 4, !tbaa !25
  %91 = sext i32 %90 to i64
  %92 = getelementptr inbounds ptr, ptr %89, i64 %91
  %93 = load ptr, ptr %92, align 8, !tbaa !24
  store ptr %93, ptr %22, align 8, !tbaa !59
  %94 = load ptr, ptr %8, align 8, !tbaa !22
  %95 = getelementptr inbounds nuw %struct.CompensationDelayContext, ptr %94, i32 0, i32 8
  %96 = load i32, ptr %95, align 8, !tbaa !61
  store i32 %96, ptr %15, align 4, !tbaa !25
  %97 = load i32, ptr %15, align 4, !tbaa !25
  %98 = load i32, ptr %10, align 4, !tbaa !25
  %99 = add i32 %97, %98
  %100 = load i32, ptr %11, align 4, !tbaa !25
  %101 = sub i32 %99, %100
  %102 = load i32, ptr %9, align 4, !tbaa !25
  %103 = and i32 %101, %102
  store i32 %103, ptr %14, align 4, !tbaa !25
  store i32 0, ptr %17, align 4, !tbaa !25
  br label %104

104:                                              ; preds = %143, %70
  %105 = load i32, ptr %17, align 4, !tbaa !25
  %106 = load ptr, ptr %5, align 8, !tbaa !45
  %107 = getelementptr inbounds nuw %struct.AVFrame, ptr %106, i32 0, i32 5
  %108 = load i32, ptr %107, align 8, !tbaa !51
  %109 = icmp slt i32 %105, %108
  br i1 %109, label %110, label %146

110:                                              ; preds = %104
  call void @llvm.lifetime.start.p0(i64 8, ptr %23) #5
  %111 = load ptr, ptr %20, align 8, !tbaa !59
  %112 = load i32, ptr %17, align 4, !tbaa !25
  %113 = sext i32 %112 to i64
  %114 = getelementptr inbounds double, ptr %111, i64 %113
  %115 = load double, ptr %114, align 8, !tbaa !49
  store double %115, ptr %23, align 8, !tbaa !49
  %116 = load double, ptr %23, align 8, !tbaa !49
  %117 = load ptr, ptr %22, align 8, !tbaa !59
  %118 = load i32, ptr %15, align 4, !tbaa !25
  %119 = zext i32 %118 to i64
  %120 = getelementptr inbounds nuw double, ptr %117, i64 %119
  store double %116, ptr %120, align 8, !tbaa !49
  %121 = load double, ptr %12, align 8, !tbaa !49
  %122 = load double, ptr %23, align 8, !tbaa !49
  %123 = load double, ptr %13, align 8, !tbaa !49
  %124 = load ptr, ptr %22, align 8, !tbaa !59
  %125 = load i32, ptr %14, align 4, !tbaa !25
  %126 = zext i32 %125 to i64
  %127 = getelementptr inbounds nuw double, ptr %124, i64 %126
  %128 = load double, ptr %127, align 8, !tbaa !49
  %129 = fmul nsz double %123, %128
  %130 = call nsz double @llvm.fmuladd.f64(double %121, double %122, double %129)
  %131 = load ptr, ptr %21, align 8, !tbaa !59
  %132 = load i32, ptr %17, align 4, !tbaa !25
  %133 = sext i32 %132 to i64
  %134 = getelementptr inbounds double, ptr %131, i64 %133
  store double %130, ptr %134, align 8, !tbaa !49
  %135 = load i32, ptr %15, align 4, !tbaa !25
  %136 = add i32 %135, 1
  %137 = load i32, ptr %9, align 4, !tbaa !25
  %138 = and i32 %136, %137
  store i32 %138, ptr %15, align 4, !tbaa !25
  %139 = load i32, ptr %14, align 4, !tbaa !25
  %140 = add i32 %139, 1
  %141 = load i32, ptr %9, align 4, !tbaa !25
  %142 = and i32 %140, %141
  store i32 %142, ptr %14, align 4, !tbaa !25
  call void @llvm.lifetime.end.p0(i64 8, ptr %23) #5
  br label %143

143:                                              ; preds = %110
  %144 = load i32, ptr %17, align 4, !tbaa !25
  %145 = add nsw i32 %144, 1
  store i32 %145, ptr %17, align 4, !tbaa !25
  br label %104, !llvm.loop !62

146:                                              ; preds = %104
  call void @llvm.lifetime.end.p0(i64 8, ptr %22) #5
  call void @llvm.lifetime.end.p0(i64 8, ptr %21) #5
  call void @llvm.lifetime.end.p0(i64 8, ptr %20) #5
  br label %147

147:                                              ; preds = %146
  %148 = load i32, ptr %18, align 4, !tbaa !25
  %149 = add nsw i32 %148, 1
  store i32 %149, ptr %18, align 4, !tbaa !25
  br label %63, !llvm.loop !64

150:                                              ; preds = %63
  %151 = load i32, ptr %15, align 4, !tbaa !25
  %152 = load ptr, ptr %8, align 8, !tbaa !22
  %153 = getelementptr inbounds nuw %struct.CompensationDelayContext, ptr %152, i32 0, i32 8
  store i32 %151, ptr %153, align 8, !tbaa !61
  %154 = load ptr, ptr %6, align 8, !tbaa !4
  %155 = getelementptr inbounds nuw %struct.AVFilterContext, ptr %154, i32 0, i32 17
  %156 = load i32, ptr %155, align 8, !tbaa !65
  %157 = icmp ne i32 %156, 0
  br i1 %157, label %158, label %162

158:                                              ; preds = %150
  call void @av_frame_free(ptr noundef %16)
  %159 = load ptr, ptr %7, align 8, !tbaa !27
  %160 = load ptr, ptr %5, align 8, !tbaa !45
  %161 = call i32 @ff_filter_frame(ptr noundef %159, ptr noundef %160)
  store i32 %161, ptr %3, align 4
  store i32 1, ptr %19, align 4
  br label %166

162:                                              ; preds = %150
  call void @av_frame_free(ptr noundef %5)
  %163 = load ptr, ptr %7, align 8, !tbaa !27
  %164 = load ptr, ptr %16, align 8, !tbaa !45
  %165 = call i32 @ff_filter_frame(ptr noundef %163, ptr noundef %164)
  store i32 %165, ptr %3, align 4
  store i32 1, ptr %19, align 4
  br label %166

166:                                              ; preds = %162, %158, %58
  call void @llvm.lifetime.end.p0(i64 4, ptr %18) #5
  call void @llvm.lifetime.end.p0(i64 4, ptr %17) #5
  call void @llvm.lifetime.end.p0(i64 8, ptr %16) #5
  call void @llvm.lifetime.end.p0(i64 4, ptr %15) #5
  call void @llvm.lifetime.end.p0(i64 4, ptr %14) #5
  call void @llvm.lifetime.end.p0(i64 8, ptr %13) #5
  call void @llvm.lifetime.end.p0(i64 8, ptr %12) #5
  call void @llvm.lifetime.end.p0(i64 4, ptr %11) #5
  call void @llvm.lifetime.end.p0(i64 4, ptr %10) #5
  call void @llvm.lifetime.end.p0(i64 4, ptr %9) #5
  call void @llvm.lifetime.end.p0(i64 8, ptr %8) #5
  call void @llvm.lifetime.end.p0(i64 8, ptr %7) #5
  call void @llvm.lifetime.end.p0(i64 8, ptr %6) #5
  %167 = load i32, ptr %3, align 4
  ret i32 %167
}