; Function Attrs: nounwind uwtable
define internal i32 @filter_frame(ptr noundef readonly captures(none) %0, ptr noundef %1) #1 {
  %3 = alloca ptr, align 8
  %4 = alloca ptr, align 8
  store ptr %1, ptr %3, align 8, !tbaa !40
  %5 = getelementptr inbounds nuw i8, ptr %0, i64 16
  %6 = load ptr, ptr %5, align 8, !tbaa !41
  %7 = getelementptr inbounds nuw i8, ptr %6, i64 56
  %8 = load ptr, ptr %7, align 8, !tbaa !20
  %9 = load ptr, ptr %8, align 8, !tbaa !21
  %10 = getelementptr inbounds nuw i8, ptr %6, i64 72
  %11 = load ptr, ptr %10, align 8, !tbaa !4
  %12 = getelementptr inbounds nuw i8, ptr %11, i64 52
  %13 = load i32, ptr %12, align 4, !tbaa !42
  %14 = add i32 %13, -1
  %15 = getelementptr inbounds nuw i8, ptr %11, i64 44
  %16 = load i32, ptr %15, align 4, !tbaa !39
  %17 = getelementptr inbounds nuw i8, ptr %11, i64 24
  %18 = load double, ptr %17, align 8, !tbaa !43
  %19 = getelementptr inbounds nuw i8, ptr %11, i64 32
  %20 = load double, ptr %19, align 8, !tbaa !44
  call void @llvm.lifetime.start.p0(i64 8, ptr nonnull %4) #5
  %21 = getelementptr inbounds nuw i8, ptr %1, i64 112
  %22 = load i32, ptr %21, align 8, !tbaa !45
  %23 = tail call ptr @ff_get_audio_buffer(ptr noundef %9, i32 noundef %22) #5
  store ptr %23, ptr %4, align 8, !tbaa !40
  %.not = icmp eq ptr %23, null
  br i1 %.not, label %24, label %25

24:                                               ; preds = %2
  call void @av_frame_free(ptr noundef nonnull %3) #5
  br label %72

25:                                               ; preds = %2
  %26 = tail call i32 @av_frame_copy_props(ptr noundef nonnull %23, ptr noundef nonnull %1) #5
  %27 = getelementptr inbounds nuw i8, ptr %0, i64 76
  %28 = load i32, ptr %27, align 4, !tbaa !51
  %29 = icmp sgt i32 %28, 0
  br i1 %29, label %.lr.ph55, label %._crit_edge56

.lr.ph55:                                         ; preds = %25
  %30 = getelementptr inbounds nuw i8, ptr %1, i64 96
  %31 = load ptr, ptr %30, align 8, !tbaa !52
  %32 = getelementptr inbounds nuw i8, ptr %23, i64 96
  %33 = load ptr, ptr %32, align 8, !tbaa !52
  %34 = getelementptr inbounds nuw i8, ptr %11, i64 56
  %35 = load ptr, ptr %34, align 8, !tbaa !53
  %36 = getelementptr inbounds nuw i8, ptr %35, i64 96
  %37 = load ptr, ptr %36, align 8, !tbaa !52
  %38 = getelementptr inbounds nuw i8, ptr %11, i64 48
  %39 = load i32, ptr %38, align 8, !tbaa !54
  %40 = sub i32 %13, %16
  %41 = add i32 %40, %39
  %42 = load i32, ptr %21, align 8, !tbaa !45
  %43 = icmp sgt i32 %42, 0
  br i1 %43, label %.lr.ph.us.preheader, label %._crit_edge56

.lr.ph.us.preheader:                              ; preds = %.lr.ph55
  %wide.trip.count63 = zext nneg i32 %28 to i64
  %wide.trip.count = zext nneg i32 %42 to i64
  br label %.lr.ph.us

.lr.ph.us:                                        ; preds = %.lr.ph.us.preheader, %._crit_edge.us
  %indvars.iv60 = phi i64 [ 0, %.lr.ph.us.preheader ], [ %indvars.iv.next61, %._crit_edge.us ]
  %44 = getelementptr inbounds nuw ptr, ptr %31, i64 %indvars.iv60
  %45 = load ptr, ptr %44, align 8, !tbaa !55
  %46 = getelementptr inbounds nuw ptr, ptr %33, i64 %indvars.iv60
  %47 = load ptr, ptr %46, align 8, !tbaa !55
  %48 = getelementptr inbounds nuw ptr, ptr %37, i64 %indvars.iv60
  %49 = load ptr, ptr %48, align 8, !tbaa !55
  br label %50

50:                                               ; preds = %.lr.ph.us, %50
  %indvars.iv = phi i64 [ 0, %.lr.ph.us ], [ %indvars.iv.next, %50 ]
  %.pn52.us = phi i32 [ %41, %.lr.ph.us ], [ %63, %50 ]
  %.151.us = phi i32 [ %39, %.lr.ph.us ], [ %62, %50 ]
  %.044.us = and i32 %.pn52.us, %14
  %51 = getelementptr inbounds nuw double, ptr %45, i64 %indvars.iv
  %52 = load double, ptr %51, align 8, !tbaa !56
  %53 = zext i32 %.151.us to i64
  %54 = getelementptr inbounds nuw double, ptr %49, i64 %53
  store double %52, ptr %54, align 8, !tbaa !56
  %55 = zext i32 %.044.us to i64
  %56 = getelementptr inbounds nuw double, ptr %49, i64 %55
  %57 = load double, ptr %56, align 8, !tbaa !56
  %58 = fmul nsz double %20, %57
  %59 = tail call nsz double @llvm.fmuladd.f64(double %18, double %52, double %58)
  %60 = getelementptr inbounds nuw double, ptr %47, i64 %indvars.iv
  store double %59, ptr %60, align 8, !tbaa !56
  %61 = add i32 %.151.us, 1
  %62 = and i32 %61, %14
  %63 = add i32 %.044.us, 1
  %indvars.iv.next = add nuw nsw i64 %indvars.iv, 1
  %exitcond.not = icmp eq i64 %indvars.iv.next, %wide.trip.count
  br i1 %exitcond.not, label %._crit_edge.us, label %50, !llvm.loop !57

._crit_edge.us:                                   ; preds = %50
  %indvars.iv.next61 = add nuw nsw i64 %indvars.iv60, 1
  %exitcond64.not = icmp eq i64 %indvars.iv.next61, %wide.trip.count63
  br i1 %exitcond64.not, label %._crit_edge56, label %.lr.ph.us, !llvm.loop !59

._crit_edge56:                                    ; preds = %._crit_edge.us, %.lr.ph55, %25
  %.045.lcssa = phi i32 [ 0, %25 ], [ %39, %.lr.ph55 ], [ %62, %._crit_edge.us ]
  %64 = getelementptr inbounds nuw i8, ptr %11, i64 48
  store i32 %.045.lcssa, ptr %64, align 8, !tbaa !54
  %65 = getelementptr inbounds nuw i8, ptr %6, i64 128
  %66 = load i32, ptr %65, align 8, !tbaa !60
  %.not49 = icmp eq i32 %66, 0
  br i1 %.not49, label %70, label %67

67:                                               ; preds = %._crit_edge56
  call void @av_frame_free(ptr noundef nonnull %4) #5
  %68 = load ptr, ptr %3, align 8, !tbaa !40
  %69 = call i32 @ff_filter_frame(ptr noundef %9, ptr noundef %68) #5
  br label %72

70:                                               ; preds = %._crit_edge56
  call void @av_frame_free(ptr noundef nonnull %3) #5
  %71 = call i32 @ff_filter_frame(ptr noundef %9, ptr noundef nonnull %23) #5
  br label %72

72:                                               ; preds = %70, %67, %24
  %.0 = phi i32 [ %69, %67 ], [ %71, %70 ], [ -12, %24 ]
  call void @llvm.lifetime.end.p0(i64 8, ptr nonnull %4) #5
  ret i32 %.0
}